; Function Attrs: nounwind uwtable
define internal fastcc noundef ptr @_readCreateForeignServerStmt() unnamed_addr #0 {
  %1 = alloca i32, align 4
  %2 = tail call noundef ptr @palloc0(i64 noundef 56) #10
  store i32 170, ptr %2, align 4
  call void @llvm.lifetime.start.p0(i64 4, ptr nonnull %1) #10
  %3 = call ptr @pg_strtok(ptr noundef nonnull %1) #10
  %4 = call ptr @pg_strtok(ptr noundef nonnull %1) #10
  %5 = load i32, ptr %1, align 4
  switch i32 %5, label %15 [
    i32 0, label %nullable_string.exit
    i32 2, label %6
  ]

6:                                                ; preds = %0
  %7 = load i8, ptr %4, align 1
  %8 = icmp eq i8 %7, 34
  br i1 %8, label %9, label %15

9:                                                ; preds = %6
  %10 = getelementptr inbounds nuw i8, ptr %4, i64 1
  %11 = load i8, ptr %10, align 1
  %12 = icmp eq i8 %11, 34
  br i1 %12, label %13, label %15

13:                                               ; preds = %9
  %14 = call ptr @pstrdup(ptr noundef nonnull @.str.326) #10
  br label %nullable_string.exit

15:                                               ; preds = %9, %6, %0
  %16 = call ptr @debackslash(ptr noundef %4, i32 noundef %5) #10
  br label %nullable_string.exit

nullable_string.exit:                             ; preds = %0, %13, %15
  %.0.i = phi ptr [ %14, %13 ], [ %16, %15 ], [ null, %0 ]
  %17 = getelementptr inbounds nuw i8, ptr %2, i64 8
  store ptr %.0.i, ptr %17, align 8
  %18 = call ptr @pg_strtok(ptr noundef nonnull %1) #10
  %19 = call ptr @pg_strtok(ptr noundef nonnull %1) #10
  %20 = load i32, ptr %1, align 4
  switch i32 %20, label %30 [
    i32 0, label %nullable_string.exit13
    i32 2, label %21
  ]

21:                                               ; preds = %nullable_string.exit
  %22 = load i8, ptr %19, align 1
  %23 = icmp eq i8 %22, 34
  br i1 %23, label %24, label %30

24:                                               ; preds = %21
  %25 = getelementptr inbounds nuw i8, ptr %19, i64 1
  %26 = load i8, ptr %25, align 1
  %27 = icmp eq i8 %26, 34
  br i1 %27, label %28, label %30

28:                                               ; preds = %24
  %29 = call ptr @pstrdup(ptr noundef nonnull @.str.326) #10
  br label %nullable_string.exit13

30:                                               ; preds = %24, %21, %nullable_string.exit
  %31 = call ptr @debackslash(ptr noundef %19, i32 noundef %20) #10
  br label %nullable_string.exit13

nullable_string.exit13:                           ; preds = %nullable_string.exit, %28, %30
  %.0.i12 = phi ptr [ %29, %28 ], [ %31, %30 ], [ null, %nullable_string.exit ]
  %32 = getelementptr inbounds nuw i8, ptr %2, i64 16
  store ptr %.0.i12, ptr %32, align 8
  %33 = call ptr @pg_strtok(ptr noundef nonnull %1) #10
  %34 = call ptr @pg_strtok(ptr noundef nonnull %1) #10
  %35 = load i32, ptr %1, align 4
  switch i32 %35, label %45 [
    i32 0, label %nullable_string.exit15
    i32 2, label %36
  ]

36:                                               ; preds = %nullable_string.exit13
  %37 = load i8, ptr %34, align 1
  %38 = icmp eq i8 %37, 34
  br i1 %38, label %39, label %45

39:                                               ; preds = %36
  %40 = getelementptr inbounds nuw i8, ptr %34, i64 1
  %41 = load i8, ptr %40, align 1
  %42 = icmp eq i8 %41, 34
  br i1 %42, label %43, label %45

43:                                               ; preds = %39
  %44 = call ptr @pstrdup(ptr noundef nonnull @.str.326) #10
  br label %nullable_string.exit15

45:                                               ; preds = %39, %36, %nullable_string.exit13
  %46 = call ptr @debackslash(ptr noundef %34, i32 noundef %35) #10
  br label %nullable_string.exit15

nullable_string.exit15:                           ; preds = %nullable_string.exit13, %43, %45
  %.0.i14 = phi ptr [ %44, %43 ], [ %46, %45 ], [ null, %nullable_string.exit13 ]
  %47 = getelementptr inbounds nuw i8, ptr %2, i64 24
  store ptr %.0.i14, ptr %47, align 8
  %48 = call ptr @pg_strtok(ptr noundef nonnull %1) #10
  %49 = call ptr @pg_strtok(ptr noundef nonnull %1) #10
  %50 = load i32, ptr %1, align 4
  switch i32 %50, label %60 [
    i32 0, label %nullable_string.exit17
    i32 2, label %51
  ]

51:                                               ; preds = %nullable_string.exit15
  %52 = load i8, ptr %49, align 1
  %53 = icmp eq i8 %52, 34
  br i1 %53, label %54, label %60

54:                                               ; preds = %51
  %55 = getelementptr inbounds nuw i8, ptr %49, i64 1
  %56 = load i8, ptr %55, align 1
  %57 = icmp eq i8 %56, 34
  br i1 %57, label %58, label %60

58:                                               ; preds = %54
  %59 = call ptr @pstrdup(ptr noundef nonnull @.str.326) #10
  br label %nullable_string.exit17

60:                                               ; preds = %54, %51, %nullable_string.exit15
  %61 = call ptr @debackslash(ptr noundef %49, i32 noundef %50) #10
  br label %nullable_string.exit17

nullable_string.exit17:                           ; preds = %nullable_string.exit15, %58, %60
  %.0.i16 = phi ptr [ %59, %58 ], [ %61, %60 ], [ null, %nullable_string.exit15 ]
  %62 = getelementptr inbounds nuw i8, ptr %2, i64 32
  store ptr %.0.i16, ptr %62, align 8
  %63 = call ptr @pg_strtok(ptr noundef nonnull %1) #10
  %64 = call ptr @pg_strtok(ptr noundef nonnull %1) #10
  %65 = load i8, ptr %64, align 1
  %66 = icmp eq i8 %65, 116
  %67 = getelementptr inbounds nuw i8, ptr %2, i64 40
  %68 = zext i1 %66 to i8
  store i8 %68, ptr %67, align 8
  %69 = call ptr @pg_strtok(ptr noundef nonnull %1) #10
  %70 = call ptr @nodeRead(ptr noundef null, i32 noundef 0) #10
  %71 = getelementptr inbounds nuw i8, ptr %2, i64 48
  store ptr %70, ptr %71, align 8
  call void @llvm.lifetime.end.p0(i64 4, ptr nonnull %1) #10
  ret ptr %2
}